(dp0
S'r6-eth1'
p1
I575000
sS'r6-eth0'
p2
I445000
sS'r6-eth2'
p3
I273000
sS'r8-eth3'
p4
I247000
sS'r10-eth1'
p5
I525000
sS'r2-eth0'
p6
I751000
sS'r2-eth3'
p7
I773000
sS'r8-eth0'
p8
I445000
sS'r1-eth0'
p9
I575000
sS'r1-eth1'
p10
I608000
sS'r1-eth2'
p11
I489000
sS'r1-eth3'
p12
I157000
sS'r7-eth1'
p13
I176000
sS'r4-eth2'
p14
I698000
sS'r4-eth1'
p15
I489000
sS'r4-eth0'
p16
I494000
sS'r5-eth0'
p17
I489000
sS'r5-eth1'
p18
I441000
sS'r5-eth2'
p19
I273000
sS'r5-eth3'
p20
I247000
sS'r9-eth0'
p21
I773000
sS'r3-eth0'
p22
I698000
sS'r2-eth1'
p23
I441000
sS'r8-eth2'
p24
I751000
sS'r8-eth1'
p25
I494000
sS'r2-eth2'
p26
I525000
sS'r7-eth2'
p27
I594000
sS'r2-eth4'
p28
I176000
sS'r7-eth0'
p29
I608000
sS'r10-eth0'
p30
I489000
sS'r8-eth4'
p31
I157000
sS'r10-eth2'
p32
I594000
s.