(dp0
S'r6-eth1'
p1
I323000
sS'r6-eth0'
p2
I170000
sS'r6-eth2'
p3
I655000
sS'r8-eth3'
p4
I222000
sS'r10-eth1'
p5
I539000
sS'r2-eth0'
p6
I315000
sS'r2-eth3'
p7
I564000
sS'r8-eth0'
p8
I170000
sS'r1-eth0'
p9
I323000
sS'r1-eth1'
p10
I769000
sS'r1-eth2'
p11
I622000
sS'r1-eth3'
p12
I134000
sS'r7-eth1'
p13
I630000
sS'r4-eth2'
p14
I328000
sS'r4-eth1'
p15
I371000
sS'r4-eth0'
p16
I231000
sS'r5-eth0'
p17
I371000
sS'r5-eth1'
p18
I274000
sS'r5-eth2'
p19
I655000
sS'r5-eth3'
p20
I222000
sS'r9-eth0'
p21
I564000
sS'r3-eth0'
p22
I328000
sS'r2-eth1'
p23
I274000
sS'r8-eth2'
p24
I315000
sS'r8-eth1'
p25
I231000
sS'r2-eth2'
p26
I539000
sS'r7-eth2'
p27
I216000
sS'r2-eth4'
p28
I630000
sS'r7-eth0'
p29
I769000
sS'r10-eth0'
p30
I622000
sS'r8-eth4'
p31
I134000
sS'r10-eth2'
p32
I216000
s.