(dp0
S's16'
p1
(dp2
S'r7'
p3
I2
sS'r10'
p4
I1
ssS's9'
p5
(dp6
S'r1'
p7
I2
sg4
I1
ssS's8'
p8
(dp9
S'r5'
p10
I2
sS'r6'
p11
I1
ssS's3'
p12
(dp13
S'r4'
p14
I2
sg10
I1
ssS's2'
p15
(dp16
g14
I2
sS'r8'
p17
I1
ssS's1'
p18
(dp19
g11
I2
sg17
I1
ssS's10'
p20
(dp21
g4
I1
sS'r2'
p22
I2
ssS's7'
p23
(dp24
g3
I1
sg7
I2
ssS's6'
p25
(dp26
g11
I1
sg7
I2
ssS's5'
p27
(dp28
g10
I1
sg22
I2
ssS's4'
p29
(dp30
g17
I1
sg22
I2
ssS's13'
p31
(dp32
g10
I2
sg17
I1
ssS's15'
p33
(dp34
g3
I1
sg22
I2
ssS's12'
p35
(dp36
g14
I1
sS'r3'
p37
I2
ssS's14'
p38
(dp39
g17
I1
sg7
I2
ssS's11'
p40
(dp41
S'r9'
p42
I1
sg22
I2
ss.