(dp0
S's9'
p1
(dp2
S'r10'
p3
I1
sS'r2'
p4
I2
ssS's8'
p5
(dp6
S'r1'
p7
I2
sg3
I1
ssS's10'
p8
(dp9
S'r9'
p10
I1
sg4
I2
ssS's3'
p11
(dp12
S'r8'
p13
I1
sg4
I2
ssS's2'
p14
(dp15
S'r4'
p16
I2
sS'r5'
p17
I1
ssS's1'
p18
(dp19
g16
I2
sg13
I1
ssS's0'
p20
(dp21
S'r6'
p22
I2
sg13
I1
ssS's7'
p23
(dp24
g17
I2
sg22
I1
ssS's6'
p25
(dp26
S'r7'
p27
I1
sg7
I2
ssS's5'
p28
(dp29
g22
I1
sg7
I2
ssS's4'
p30
(dp31
g17
I1
sg4
I2
ssS's13'
p32
(dp33
g13
I1
sg7
I2
ssS's15'
p34
(dp35
g27
I2
sg3
I1
ssS's12'
p36
(dp37
g17
I2
sg13
I1
ssS's14'
p38
(dp39
g27
I1
sg4
I2
ssS's11'
p40
(dp41
g16
I1
sS'r3'
p42
I2
ss.