(dp0
S'r6-eth0'
p1
I611000
sS'r8-eth3'
p2
I304000
sS'r10-eth1'
p3
I466000
sS'r2-eth0'
p4
I454000
sS'r2-eth3'
p5
I116000
sS'r2-eth2'
p6
I304000
sS'r1-eth0'
p7
I523000
sS'r1-eth1'
p8
I303000
sS'r10-eth3'
p9
I302000
sS'r10-eth2'
p10
I264000
sS'r10-eth0'
p11
I303000
sS'r4-eth2'
p12
I302000
sS'r4-eth1'
p13
I498000
sS'r4-eth0'
p14
I725000
sS'r5-eth0'
p15
I585000
sS'r5-eth1'
p16
I523000
sS'r5-eth2'
p17
I725000
sS'r5-eth3'
p18
I264000
sS'r9-eth0'
p19
I454000
sS'r9-eth1'
p20
I671000
sS'r3-eth0'
p21
I498000
sS'r3-eth1'
p22
I498000
sS'r2-eth1'
p23
I611000
sS'r8-eth2'
p24
I466000
sS'r8-eth1'
p25
I514000
sS'r8-eth0'
p26
I585000
sS'r7-eth2'
p27
I116000
sS'r2-eth4'
p28
I370000
sS'r7-eth0'
p29
I671000
sS'r7-eth1'
p30
I514000
sS'r1-eth2'
p31
I370000
sS'r1-eth3'
p32
I498000
s.