(dp0
S's16'
p1
(dp2
S'r1'
p3
I2
sS'r3'
p4
I1
ssS's9'
p5
(dp6
S'r6'
p7
I1
sS'r2'
p8
I2
ssS's8'
p9
(dp10
S'r4'
p11
I1
sg4
I2
ssS's3'
p12
(dp13
S'r5'
p14
I1
sg3
I2
ssS's2'
p15
(dp16
S'r9'
p17
I1
sg8
I2
ssS's1'
p18
(dp19
g14
I2
sS'r8'
p20
I1
ssS's10'
p21
(dp22
g20
I2
sS'r10'
p23
I1
ssS's7'
p24
(dp25
S'r7'
p26
I2
sg20
I1
ssS's6'
p27
(dp28
g26
I2
sg17
I1
ssS's5'
p29
(dp30
g3
I2
sg23
I1
ssS's4'
p31
(dp32
g11
I2
sg14
I1
ssS's13'
p33
(dp34
g20
I1
sg8
I2
ssS's15'
p35
(dp36
g3
I2
sg8
I1
ssS's12'
p37
(dp38
g11
I2
sg23
I1
ssS's14'
p39
(dp40
g26
I1
sg8
I2
ssS's11'
p41
(dp42
g14
I2
sg23
I1
ss.